target datalayout = "e-m:e-p270:32:32-p271:32:32-p272:64:64-i64:64-i128:128-f80:128-n8:16:32:64-S128"
target triple = "x86_64-pc-linux-gnu"

%struct.normal_encoding = type { %struct.encoding, [256 x i8], ptr, ptr, ptr, ptr, ptr, ptr, ptr, ptr, ptr }
%struct.encoding = type { [3 x ptr], [2 x ptr], ptr, ptr, ptr, ptr, ptr, ptr, ptr, ptr, ptr, ptr, i32, i8, i8 }

; Function Attrs: nounwind uwtable
define internal i32 @checkCharRefNumber(i32 noundef %0) #0 {
  %2 = alloca i32, align 4
  %3 = alloca i32, align 4
  store i32 %0, ptr %3, align 4, !tbaa !16
  %4 = load i32, ptr %3, align 4, !tbaa !16
  %5 = ashr i32 %4, 8
  switch i32 %5, label %24 [
    i32 216, label %6
    i32 217, label %6
    i32 218, label %6
    i32 219, label %6
    i32 220, label %6
    i32 221, label %6
    i32 222, label %6
    i32 223, label %6
    i32 0, label %7
    i32 255, label %16
  ]

6:                                                ; preds = %1, %1, %1, %1, %1, %1, %1, %1
  store i32 -1, ptr %2, align 4
  br label %26

7:                                                ; preds = %1
  %8 = load i32, ptr %3, align 4, !tbaa !16
  %9 = sext i32 %8 to i64
  %10 = getelementptr inbounds [256 x i8], ptr getelementptr inbounds nuw (%struct.normal_encoding, ptr @latin1_encoding, i32 0, i32 1), i64 0, i64 %9
  %11 = load i8, ptr %10, align 1, !tbaa !13
  %12 = zext i8 %11 to i32
  %13 = icmp eq i32 %12, 0
  br i1 %13, label %14, label %15

14:                                               ; preds = %7
  store i32 -1, ptr %2, align 4
  br label %26

15:                                               ; preds = %7
  br label %24

16:                                               ; preds = %1
  %17 = load i32, ptr %3, align 4, !tbaa !16
  %18 = icmp eq i32 %17, 65534
  br i1 %18, label %22, label %19

19:                                               ; preds = %16
  %20 = load i32, ptr %3, align 4, !tbaa !16
  %21 = icmp eq i32 %20, 65535
  br i1 %21, label %22, label %23

22:                                               ; preds = %19, %16
  store i32 -1, ptr %2, align 4
  br label %26

23:                                               ; preds = %19
  br label %24

24:                                               ; preds = %1, %23, %15
  %25 = load i32, ptr %3, align 4, !tbaa !16
  store i32 %25, ptr %2, align 4
  br label %26

26:                                               ; preds = %24, %22, %14, %6
  %27 = load i32, ptr %2, align 4
  ret i32 %27
}

; Function Attrs: nounwind uwtable
define internal i32 @little2_charRefNumber(ptr noundef %0, ptr noundef %1) #0 {
  %3 = alloca i32, align 4
  %4 = alloca ptr, align 8
  %5 = alloca ptr, align 8
  %6 = alloca i32, align 4
  %7 = alloca i32, align 4
  %8 = alloca i32, align 4
  %9 = alloca i32, align 4
  store ptr %0, ptr %4, align 8, !tbaa !45
  store ptr %1, ptr %5, align 8, !tbaa !4
  call void @llvm.lifetime.start.p0(i64 4, ptr %6) #4
  store i32 0, ptr %6, align 4, !tbaa !16
  %10 = load ptr, ptr %5, align 8, !tbaa !4
  %11 = getelementptr inbounds i8, ptr %10, i64 4
  store ptr %11, ptr %5, align 8, !tbaa !4
  %12 = load ptr, ptr %5, align 8, !tbaa !4
  %13 = getelementptr inbounds i8, ptr %12, i64 1
  %14 = load i8, ptr %13, align 1, !tbaa !13
  %15 = sext i8 %14 to i32
  %16 = icmp eq i32 %15, 0
  br i1 %16, label %17, label %91

17:                                               ; preds = %2
  %18 = load ptr, ptr %5, align 8, !tbaa !4
  %19 = getelementptr inbounds i8, ptr %18, i64 0
  %20 = load i8, ptr %19, align 1, !tbaa !13
  %21 = sext i8 %20 to i32
  %22 = icmp eq i32 %21, 120
  br i1 %22, label %23, label %91

23:                                               ; preds = %17
  %24 = load ptr, ptr %5, align 8, !tbaa !4
  %25 = getelementptr inbounds i8, ptr %24, i64 2
  store ptr %25, ptr %5, align 8, !tbaa !4
  br label %26

26:                                               ; preds = %87, %23
  %27 = load ptr, ptr %5, align 8, !tbaa !4
  %28 = getelementptr inbounds i8, ptr %27, i64 1
  %29 = load i8, ptr %28, align 1, !tbaa !13
  %30 = sext i8 %29 to i32
  %31 = icmp eq i32 %30, 0
  br i1 %31, label %32, label %38

32:                                               ; preds = %26
  %33 = load ptr, ptr %5, align 8, !tbaa !4
  %34 = getelementptr inbounds i8, ptr %33, i64 0
  %35 = load i8, ptr %34, align 1, !tbaa !13
  %36 = sext i8 %35 to i32
  %37 = icmp eq i32 %36, 59
  br label %38

38:                                               ; preds = %32, %26
  %39 = phi i1 [ false, %26 ], [ %37, %32 ]
  %40 = xor i1 %39, true
  br i1 %40, label %41, label %90

41:                                               ; preds = %38
  call void @llvm.lifetime.start.p0(i64 4, ptr %7) #4
  %42 = load ptr, ptr %5, align 8, !tbaa !4
  %43 = getelementptr inbounds i8, ptr %42, i64 1
  %44 = load i8, ptr %43, align 1, !tbaa !13
  %45 = sext i8 %44 to i32
  %46 = icmp eq i32 %45, 0
  br i1 %46, label %47, label %52

47:                                               ; preds = %41
  %48 = load ptr, ptr %5, align 8, !tbaa !4
  %49 = getelementptr inbounds i8, ptr %48, i64 0
  %50 = load i8, ptr %49, align 1, !tbaa !13
  %51 = sext i8 %50 to i32
  br label %53

52:                                               ; preds = %41
  br label %53

53:                                               ; preds = %52, %47
  %54 = phi i32 [ %51, %47 ], [ -1, %52 ]
  store i32 %54, ptr %7, align 4, !tbaa !16
  %55 = load i32, ptr %7, align 4, !tbaa !16
  switch i32 %55, label %79 [
    i32 48, label %56
    i32 49, label %56
    i32 50, label %56
    i32 51, label %56
    i32 52, label %56
    i32 53, label %56
    i32 54, label %56
    i32 55, label %56
    i32 56, label %56
    i32 57, label %56
    i32 65, label %63
    i32 66, label %63
    i32 67, label %63
    i32 68, label %63
    i32 69, label %63
    i32 70, label %63
    i32 97, label %71
    i32 98, label %71
    i32 99, label %71
    i32 100, label %71
    i32 101, label %71
    i32 102, label %71
  ]

56:                                               ; preds = %53, %53, %53, %53, %53, %53, %53, %53, %53, %53
  %57 = load i32, ptr %6, align 4, !tbaa !16
  %58 = shl i32 %57, 4
  store i32 %58, ptr %6, align 4, !tbaa !16
  %59 = load i32, ptr %7, align 4, !tbaa !16
  %60 = sub nsw i32 %59, 48
  %61 = load i32, ptr %6, align 4, !tbaa !16
  %62 = or i32 %61, %60
  store i32 %62, ptr %6, align 4, !tbaa !16
  br label %79

63:                                               ; preds = %53, %53, %53, %53, %53, %53
  %64 = load i32, ptr %6, align 4, !tbaa !16
  %65 = shl i32 %64, 4
  store i32 %65, ptr %6, align 4, !tbaa !16
  %66 = load i32, ptr %7, align 4, !tbaa !16
  %67 = sub nsw i32 %66, 65
  %68 = add nsw i32 10, %67
  %69 = load i32, ptr %6, align 4, !tbaa !16
  %70 = add nsw i32 %69, %68
  store i32 %70, ptr %6, align 4, !tbaa !16
  br label %79

71:                                               ; preds = %53, %53, %53, %53, %53, %53
  %72 = load i32, ptr %6, align 4, !tbaa !16
  %73 = shl i32 %72, 4
  store i32 %73, ptr %6, align 4, !tbaa !16
  %74 = load i32, ptr %7, align 4, !tbaa !16
  %75 = sub nsw i32 %74, 97
  %76 = add nsw i32 10, %75
  %77 = load i32, ptr %6, align 4, !tbaa !16
  %78 = add nsw i32 %77, %76
  store i32 %78, ptr %6, align 4, !tbaa !16
  br label %79

79:                                               ; preds = %53, %71, %63, %56
  %80 = load i32, ptr %6, align 4, !tbaa !16
  %81 = icmp sge i32 %80, 1114112
  br i1 %81, label %82, label %83

82:                                               ; preds = %79
  store i32 -1, ptr %3, align 4
  store i32 1, ptr %8, align 4
  br label %84

83:                                               ; preds = %79
  store i32 0, ptr %8, align 4
  br label %84

84:                                               ; preds = %83, %82
  call void @llvm.lifetime.end.p0(i64 4, ptr %7) #4
  %85 = load i32, ptr %8, align 4
  switch i32 %85, label %141 [
    i32 0, label %86
  ]

86:                                               ; preds = %84
  br label %87

87:                                               ; preds = %86
  %88 = load ptr, ptr %5, align 8, !tbaa !4
  %89 = getelementptr inbounds i8, ptr %88, i64 2
  store ptr %89, ptr %5, align 8, !tbaa !4
  br label %26, !llvm.loop !118

90:                                               ; preds = %38
  br label %138

91:                                               ; preds = %17, %2
  br label %92

92:                                               ; preds = %134, %91
  %93 = load ptr, ptr %5, align 8, !tbaa !4
  %94 = getelementptr inbounds i8, ptr %93, i64 1
  %95 = load i8, ptr %94, align 1, !tbaa !13
  %96 = sext i8 %95 to i32
  %97 = icmp eq i32 %96, 0
  br i1 %97, label %98, label %104

98:                                               ; preds = %92
  %99 = load ptr, ptr %5, align 8, !tbaa !4
  %100 = getelementptr inbounds i8, ptr %99, i64 0
  %101 = load i8, ptr %100, align 1, !tbaa !13
  %102 = sext i8 %101 to i32
  %103 = icmp eq i32 %102, 59
  br label %104

104:                                              ; preds = %98, %92
  %105 = phi i1 [ false, %92 ], [ %103, %98 ]
  %106 = xor i1 %105, true
  br i1 %106, label %107, label %137

107:                                              ; preds = %104
  call void @llvm.lifetime.start.p0(i64 4, ptr %9) #4
  %108 = load ptr, ptr %5, align 8, !tbaa !4
  %109 = getelementptr inbounds i8, ptr %108, i64 1
  %110 = load i8, ptr %109, align 1, !tbaa !13
  %111 = sext i8 %110 to i32
  %112 = icmp eq i32 %111, 0
  br i1 %112, label %113, label %118

113:                                              ; preds = %107
  %114 = load ptr, ptr %5, align 8, !tbaa !4
  %115 = getelementptr inbounds i8, ptr %114, i64 0
  %116 = load i8, ptr %115, align 1, !tbaa !13
  %117 = sext i8 %116 to i32
  br label %119

118:                                              ; preds = %107
  br label %119

119:                                              ; preds = %118, %113
  %120 = phi i32 [ %117, %113 ], [ -1, %118 ]
  store i32 %120, ptr %9, align 4, !tbaa !16
  %121 = load i32, ptr %6, align 4, !tbaa !16
  %122 = mul nsw i32 %121, 10
  store i32 %122, ptr %6, align 4, !tbaa !16
  %123 = load i32, ptr %9, align 4, !tbaa !16
  %124 = sub nsw i32 %123, 48
  %125 = load i32, ptr %6, align 4, !tbaa !16
  %126 = add nsw i32 %125, %124
  store i32 %126, ptr %6, align 4, !tbaa !16
  %127 = load i32, ptr %6, align 4, !tbaa !16
  %128 = icmp sge i32 %127, 1114112
  br i1 %128, label %129, label %130

129:                                              ; preds = %119
  store i32 -1, ptr %3, align 4
  store i32 1, ptr %8, align 4
  br label %131

130:                                              ; preds = %119
  store i32 0, ptr %8, align 4
  br label %131

131:                                              ; preds = %130, %129
  call void @llvm.lifetime.end.p0(i64 4, ptr %9) #4
  %132 = load i32, ptr %8, align 4
  switch i32 %132, label %141 [
    i32 0, label %133
  ]

133:                                              ; preds = %131
  br label %134

134:                                              ; preds = %133
  %135 = load ptr, ptr %5, align 8, !tbaa !4
  %136 = getelementptr inbounds i8, ptr %135, i64 2
  store ptr %136, ptr %5, align 8, !tbaa !4
  br label %92, !llvm.loop !119

137:                                              ; preds = %104
  br label %138

138:                                              ; preds = %137, %90
  %139 = load i32, ptr %6, align 4, !tbaa !16
  %140 = call i32 @checkCharRefNumber(i32 noundef %139)
  store i32 %140, ptr %3, align 4
  store i32 1, ptr %8, align 4
  br label %141

141:                                              ; preds = %138, %131, %84
  call void @llvm.lifetime.end.p0(i64 4, ptr %6) #4
  %142 = load i32, ptr %3, align 4
  ret i32 %142
}