; Function Attrs: nofree norecurse nosync nounwind memory(argmem: read) uwtable
define internal range(i32 -2147483648, 1114112) i32 @little2_charRefNumber(ptr readnone captures(none) %0, ptr noundef readonly captures(none) %1) #7 {
  %3 = getelementptr inbounds nuw i8, ptr %1, i64 4
  %4 = getelementptr inbounds nuw i8, ptr %1, i64 5
  %5 = load i8, ptr %4, align 1, !tbaa !9
  %6 = icmp eq i8 %5, 0
  br i1 %6, label %7, label %.preheader

.preheader:                                       ; preds = %7, %2
  br label %34

7:                                                ; preds = %2
  %8 = load i8, ptr %3, align 1, !tbaa !9
  %9 = icmp eq i8 %8, 120
  br i1 %9, label %10, label %.preheader

10:                                               ; preds = %7
  %11 = getelementptr inbounds nuw i8, ptr %1, i64 6
  br label %12

12:                                               ; preds = %.thread, %10
  %.037 = phi i32 [ 0, %10 ], [ %.13845, %.thread ]
  %.035 = phi ptr [ %11, %10 ], [ %33, %.thread ]
  %13 = getelementptr inbounds nuw i8, ptr %.035, i64 1
  %14 = load i8, ptr %13, align 1, !tbaa !9
  %15 = icmp eq i8 %14, 0
  br i1 %15, label %16, label %.thread

16:                                               ; preds = %12
  %17 = load i8, ptr %.035, align 1, !tbaa !9
  %.not46 = icmp eq i8 %17, 59
  br i1 %.not46, label %.loopexit, label %.critedge

.critedge:                                        ; preds = %16
  %18 = sext i8 %17 to i32
  switch i8 %17, label %.thread [
    i8 48, label %19
    i8 49, label %19
    i8 50, label %19
    i8 51, label %19
    i8 52, label %19
    i8 53, label %19
    i8 54, label %19
    i8 55, label %19
    i8 56, label %19
    i8 57, label %19
    i8 65, label %23
    i8 66, label %23
    i8 67, label %23
    i8 68, label %23
    i8 69, label %23
    i8 70, label %23
    i8 97, label %27
    i8 98, label %27
    i8 99, label %27
    i8 100, label %27
    i8 101, label %27
    i8 102, label %27
  ]

19:                                               ; preds = %.critedge, %.critedge, %.critedge, %.critedge, %.critedge, %.critedge, %.critedge, %.critedge, %.critedge, %.critedge
  %20 = shl i32 %.037, 4
  %21 = add nsw i32 %18, -48
  %22 = or i32 %21, %20
  br label %31

23:                                               ; preds = %.critedge, %.critedge, %.critedge, %.critedge, %.critedge, %.critedge
  %24 = shl i32 %.037, 4
  %25 = add i32 %24, -55
  %26 = add i32 %25, %18
  br label %31

27:                                               ; preds = %.critedge, %.critedge, %.critedge, %.critedge, %.critedge, %.critedge
  %28 = shl i32 %.037, 4
  %29 = add i32 %28, -87
  %30 = add i32 %29, %18
  br label %31

31:                                               ; preds = %27, %23, %19
  %.138 = phi i32 [ %30, %27 ], [ %26, %23 ], [ %22, %19 ]
  %32 = icmp slt i32 %.138, 1114112
  br i1 %32, label %.thread, label %checkCharRefNumber.exit

.thread:                                          ; preds = %12, %.critedge, %31
  %.13845 = phi i32 [ %.138, %31 ], [ %.037, %.critedge ], [ %.037, %12 ]
  %33 = getelementptr inbounds nuw i8, ptr %.035, i64 2
  br label %12, !llvm.loop !106

34:                                               ; preds = %.preheader, %.critedge42
  %.340 = phi i32 [ %45, %.critedge42 ], [ 0, %.preheader ]
  %.136 = phi ptr [ %47, %.critedge42 ], [ %3, %.preheader ]
  %35 = getelementptr inbounds nuw i8, ptr %.136, i64 1
  %36 = load i8, ptr %35, align 1, !tbaa !9
  %37 = icmp eq i8 %36, 0
  br i1 %37, label %38, label %.critedge42

38:                                               ; preds = %34
  %39 = load i8, ptr %.136, align 1, !tbaa !9
  %.not = icmp eq i8 %39, 59
  br i1 %.not, label %.loopexit, label %40

40:                                               ; preds = %38
  %41 = sext i8 %39 to i32
  %42 = add nsw i32 %41, -48
  br label %.critedge42

.critedge42:                                      ; preds = %34, %40
  %43 = phi i32 [ %42, %40 ], [ -49, %34 ]
  %44 = mul nsw i32 %.340, 10
  %45 = add nsw i32 %43, %44
  %46 = icmp slt i32 %45, 1114112
  %47 = getelementptr inbounds nuw i8, ptr %.136, i64 2
  br i1 %46, label %34, label %checkCharRefNumber.exit, !llvm.loop !107

.loopexit:                                        ; preds = %38, %16
  %.239 = phi i32 [ %.037, %16 ], [ %.340, %38 ]
  %48 = ashr i32 %.239, 8
  switch i32 %48, label %56 [
    i32 216, label %checkCharRefNumber.exit
    i32 217, label %checkCharRefNumber.exit
    i32 218, label %checkCharRefNumber.exit
    i32 219, label %checkCharRefNumber.exit
    i32 220, label %checkCharRefNumber.exit
    i32 221, label %checkCharRefNumber.exit
    i32 222, label %checkCharRefNumber.exit
    i32 223, label %checkCharRefNumber.exit
    i32 0, label %49
    i32 255, label %54
  ]

49:                                               ; preds = %.loopexit
  %50 = sext i32 %.239 to i64
  %51 = getelementptr inbounds [256 x i8], ptr getelementptr inbounds nuw (i8, ptr @latin1_encoding, i64 128), i64 0, i64 %50
  %52 = load i8, ptr %51, align 1, !tbaa !9
  %53 = icmp eq i8 %52, 0
  br i1 %53, label %checkCharRefNumber.exit, label %56

54:                                               ; preds = %.loopexit
  %55 = and i32 %.239, -2
  %or.cond.i = icmp eq i32 %55, 65534
  br i1 %or.cond.i, label %checkCharRefNumber.exit, label %56

56:                                               ; preds = %54, %49, %.loopexit
  br label %checkCharRefNumber.exit

checkCharRefNumber.exit:                          ; preds = %.critedge42, %31, %56, %54, %49, %.loopexit, %.loopexit, %.loopexit, %.loopexit, %.loopexit, %.loopexit, %.loopexit, %.loopexit
  %.2 = phi i32 [ %.239, %56 ], [ -1, %.loopexit ], [ -1, %.loopexit ], [ -1, %.loopexit ], [ -1, %.loopexit ], [ -1, %.loopexit ], [ -1, %.loopexit ], [ -1, %.loopexit ], [ -1, %.loopexit ], [ -1, %49 ], [ -1, %54 ], [ -1, %31 ], [ -1, %.critedge42 ]
  ret i32 %.2
}